target datalayout = "e-m:e-p270:32:32-p271:32:32-p272:64:64-i64:64-i128:128-f80:128-n8:16:32:64-S128"
target triple = "x86_64-pc-linux-gnu"

%"class.SystemProcessInterface::SystemProcesses::ProcessIterator" = type <{ ptr, ptr, i8, [4096 x i8], [4096 x i8], [7 x i8] }>
%"class.SystemProcessInterface::SystemProcesses" = type { ptr }

@.str.8 = private unnamed_addr constant [6 x i8] c"/proc\00", align 1
@_ZN22SystemProcessInterface15SystemProcesses15ProcessIteratorC1Ev = hidden unnamed_addr alias void (ptr), ptr @_ZN22SystemProcessInterface15SystemProcesses15ProcessIteratorC2Ev

; Function Attrs: mustprogress nounwind uwtable
define hidden noundef zeroext i1 @_ZN22SystemProcessInterface15SystemProcesses15ProcessIterator10initializeEv(ptr noundef nonnull align 8 dereferenceable(8209) %0) #1 align 2 {
  %2 = alloca ptr, align 8
  store ptr %0, ptr %2, align 8
  %3 = load ptr, ptr %2, align 8
  %4 = call noundef ptr @_ZN2os7opendirEPKc(ptr noundef @.str.8)
  %5 = getelementptr inbounds %"class.SystemProcessInterface::SystemProcesses::ProcessIterator", ptr %3, i32 0, i32 0
  store ptr %4, ptr %5, align 8
  %6 = getelementptr inbounds %"class.SystemProcessInterface::SystemProcesses::ProcessIterator", ptr %3, i32 0, i32 1
  store ptr null, ptr %6, align 8
  %7 = getelementptr inbounds %"class.SystemProcessInterface::SystemProcesses::ProcessIterator", ptr %3, i32 0, i32 0
  %8 = load ptr, ptr %7, align 8
  %9 = icmp ne ptr %8, null
  %10 = getelementptr inbounds %"class.SystemProcessInterface::SystemProcesses::ProcessIterator", ptr %3, i32 0, i32 2
  %11 = zext i1 %9 to i8
  store i8 %11, ptr %10, align 8
  %12 = call noundef i32 @_ZN22SystemProcessInterface15SystemProcesses15ProcessIterator12next_processEv(ptr noundef nonnull align 8 dereferenceable(8209) %3)
  ret i1 true
}

; Function Attrs: mustprogress nounwind uwtable
define hidden noundef zeroext i1 @_ZN22SystemProcessInterface15SystemProcesses10initializeEv(ptr noundef nonnull align 8 dereferenceable(8) %0) #1 align 2 {
  %2 = alloca i64, align 8
  %3 = alloca i8, align 1
  %4 = alloca i64, align 8
  %5 = alloca ptr, align 8
  store ptr %0, ptr %5, align 8
  %6 = load ptr, ptr %5, align 8
  store i64 8216, ptr %4, align 8
  %7 = load i64, ptr %4, align 8
  store i64 %7, ptr %2, align 8
  store i8 9, ptr %3, align 1
  %8 = load i64, ptr %2, align 8
  %9 = load i8, ptr %3, align 1
  %10 = call noundef ptr @_Z12AllocateHeapm8MEMFLAGSN17AllocFailStrategy13AllocFailEnumE(i64 noundef %8, i8 noundef zeroext %9, i32 noundef 0) #8
  call void @_ZN22SystemProcessInterface15SystemProcesses15ProcessIteratorC1Ev(ptr noundef nonnull align 8 dereferenceable(8209) %10)
  %11 = getelementptr inbounds %"class.SystemProcessInterface::SystemProcesses", ptr %6, i32 0, i32 0
  store ptr %10, ptr %11, align 8
  %12 = getelementptr inbounds %"class.SystemProcessInterface::SystemProcesses", ptr %6, i32 0, i32 0
  %13 = load ptr, ptr %12, align 8
  %14 = call noundef zeroext i1 @_ZN22SystemProcessInterface15SystemProcesses15ProcessIterator10initializeEv(ptr noundef nonnull align 8 dereferenceable(8209) %13)
  ret i1 %14
}