; Function Attrs: mustprogress nounwind uwtable
define hidden noundef zeroext i1 @_ZN22SystemProcessInterface15SystemProcesses10initializeEv(ptr nocapture noundef nonnull writeonly align 8 dereferenceable(8) %0) local_unnamed_addr #0 align 2 {
  %2 = tail call noundef ptr @_Z12AllocateHeapm8MEMFLAGSN17AllocFailStrategy13AllocFailEnumE(i64 noundef 8216, i8 noundef zeroext 9, i32 noundef 0) #18
  tail call void @llvm.memset.p0.i64(ptr noundef nonnull align 8 dereferenceable(17) %2, i8 0, i64 17, i1 false)
  store ptr %2, ptr %0, align 8
  %3 = tail call noundef ptr @_ZN2os7opendirEPKc(ptr noundef nonnull @.str.8) #18
  store ptr %3, ptr %2, align 8
  %4 = getelementptr inbounds i8, ptr %2, i64 8
  store ptr null, ptr %4, align 8
  %5 = icmp ne ptr %3, null
  %6 = getelementptr inbounds i8, ptr %2, i64 16
  %7 = zext i1 %5 to i8
  store i8 %7, ptr %6, align 8
  %8 = tail call noundef i32 @_ZN22SystemProcessInterface15SystemProcesses15ProcessIterator12next_processEv(ptr noundef nonnull align 8 dereferenceable(8209) %2)
  ret i1 true
}